target datalayout = "e-m:e-p270:32:32-p271:32:32-p272:64:64-i64:64-i128:128-f80:128-n8:16:32:64-S128"
target triple = "x86_64-unknown-linux-gnu"

%struct.BlockDriverState = type { i32, i8, i8, i8, i8, i8, ptr, ptr, ptr, %struct.anon, i8, [4096 x i8], [4096 x i8], [4096 x i8], [16 x i8], ptr, [4096 x i8], %struct.BlockLimits, i32, i32, i32, i32, [32 x i8], %union.anon, %union.anon.0, %union.anon.1, i32, [16 x %struct.anon.2], ptr, %struct.anon.3, ptr, ptr, %struct.anon.4, ptr, ptr, i32, ptr, i64, i64, %struct.QemuMutex, %struct.anon.5, %struct.Stat64, i32, i32, i32, i32, i32, i32, %struct.QemuMutex, %struct.anon.6, %struct.CoQueue, i8, i32, i8, %struct.CoMutex, ptr, ptr }
%struct.anon = type { ptr }
%struct.BlockLimits = type { i32, i64, i32, i64, i32, i32, i32, i64, i32, i64, i64, i32, i8, i32, i32, i32, i32, i32, i32, i32 }
%union.anon = type { %struct.QTailQLink }
%struct.QTailQLink = type { ptr, ptr }
%union.anon.0 = type { %struct.QTailQLink }
%union.anon.1 = type { %struct.QTailQLink }
%struct.anon.2 = type { ptr }
%struct.anon.3 = type { ptr }
%struct.anon.4 = type { ptr }
%struct.anon.5 = type { ptr }
%struct.Stat64 = type { i64 }
%struct.QemuMutex = type { %union.pthread_mutex_t, i8 }
%union.pthread_mutex_t = type { %struct.__pthread_mutex_s }
%struct.__pthread_mutex_s = type { i32, i32, i32, i32, i32, i16, i16, %struct.__pthread_internal_list }
%struct.__pthread_internal_list = type { ptr, ptr }
%struct.anon.6 = type { ptr }
%struct.CoQueue = type { %struct.anon.7 }
%struct.anon.7 = type { ptr, ptr }
%struct.CoMutex = type { i32, ptr, %struct.anon.8, %struct.anon.8, i32, i32, ptr }
%struct.anon.8 = type { ptr }
%struct.BDRVQcow2State = type { i32, i32, i32, i32, i32, i32, i32, i32, i32, i32, i32, i32, i32, i32, i64, i64, ptr, ptr, ptr, ptr, i32, %struct.anon.9, ptr, i64, i32, i32, i64, i64, %struct.CoMutex, %struct.Qcow2CryptoHeaderExtension, ptr, ptr, i8, i32, i64, i32, i32, ptr, i32, i64, i64, i32, i32, i8, i32, i32, i64, ptr, ptr, [5 x i8], i8, i32, i8, i64, i64, i64, i64, ptr, %struct.anon.10, %union.anon.11, i8, ptr, ptr, ptr, %struct.CoQueue, i32, ptr, i8, i8, i32 }
%struct.anon.9 = type { ptr }
%struct.Qcow2CryptoHeaderExtension = type { i64, i64 }
%struct.anon.10 = type { ptr }
%union.anon.11 = type { %struct.QTailQLink }

; Function Attrs: nounwind sspstrong uwtable
define internal zeroext i1 @qcow2_need_accurate_refcounts(ptr noundef %s) #0 {
entry:
  %s.addr = alloca ptr, align 8
  store ptr %s, ptr %s.addr, align 8
  %0 = load ptr, ptr %s.addr, align 8
  %incompatible_features = getelementptr inbounds %struct.BDRVQcow2State, ptr %0, i32 0, i32 53
  %1 = load i64, ptr %incompatible_features, align 8
  %and = and i64 %1, 1
  %tobool = icmp ne i64 %and, 0
  %lnot = xor i1 %tobool, true
  ret i1 %lnot
}

; Function Attrs: nounwind sspstrong uwtable
define dso_local i32 @qcow2_write_caches(ptr noundef %bs) #0 {
entry:
  %retval = alloca i32, align 4
  %bs.addr = alloca ptr, align 8
  %s = alloca ptr, align 8
  %ret = alloca i32, align 4
  store ptr %bs, ptr %bs.addr, align 8
  %0 = load ptr, ptr %bs.addr, align 8
  %opaque = getelementptr inbounds %struct.BlockDriverState, ptr %0, i32 0, i32 7
  %1 = load ptr, ptr %opaque, align 8
  store ptr %1, ptr %s, align 8
  %2 = load ptr, ptr %bs.addr, align 8
  %3 = load ptr, ptr %s, align 8
  %l2_table_cache = getelementptr inbounds %struct.BDRVQcow2State, ptr %3, i32 0, i32 17
  %4 = load ptr, ptr %l2_table_cache, align 8
  %call = call i32 @qcow2_cache_write(ptr noundef %2, ptr noundef %4)
  store i32 %call, ptr %ret, align 4
  %5 = load i32, ptr %ret, align 4
  %cmp = icmp slt i32 %5, 0
  br i1 %cmp, label %if.then, label %if.end

if.then:                                          ; preds = %entry
  %6 = load i32, ptr %ret, align 4
  store i32 %6, ptr %retval, align 4
  br label %return

if.end:                                           ; preds = %entry
  %7 = load ptr, ptr %s, align 8
  %call1 = call zeroext i1 @qcow2_need_accurate_refcounts(ptr noundef %7)
  br i1 %call1, label %if.then2, label %if.end7

if.then2:                                         ; preds = %if.end
  %8 = load ptr, ptr %bs.addr, align 8
  %9 = load ptr, ptr %s, align 8
  %refcount_block_cache = getelementptr inbounds %struct.BDRVQcow2State, ptr %9, i32 0, i32 18
  %10 = load ptr, ptr %refcount_block_cache, align 8
  %call3 = call i32 @qcow2_cache_write(ptr noundef %8, ptr noundef %10)
  store i32 %call3, ptr %ret, align 4
  %11 = load i32, ptr %ret, align 4
  %cmp4 = icmp slt i32 %11, 0
  br i1 %cmp4, label %if.then5, label %if.end6

if.then5:                                         ; preds = %if.then2
  %12 = load i32, ptr %ret, align 4
  store i32 %12, ptr %retval, align 4
  br label %return

if.end6:                                          ; preds = %if.then2
  br label %if.end7

if.end7:                                          ; preds = %if.end6, %if.end
  store i32 0, ptr %retval, align 4
  br label %return

return:                                           ; preds = %if.end7, %if.then5, %if.then
  %13 = load i32, ptr %retval, align 4
  ret i32 %13
}