; Function Attrs: nounwind sspstrong uwtable
define dso_local range(i32 -2147483648, 1) i32 @qcow2_write_caches(ptr noundef %bs) local_unnamed_addr #0 {
entry:
  %opaque = getelementptr inbounds nuw i8, ptr %bs, i64 24
  %0 = load ptr, ptr %opaque, align 8
  %l2_table_cache = getelementptr inbounds nuw i8, ptr %0, i64 80
  %1 = load ptr, ptr %l2_table_cache, align 8
  %call = tail call i32 @qcow2_cache_write(ptr noundef %bs, ptr noundef %1) #17
  %cmp = icmp slt i32 %call, 0
  br i1 %cmp, label %return, label %if.end

if.end:                                           ; preds = %entry
  %2 = getelementptr i8, ptr %0, i64 360
  %.val = load i64, ptr %2, align 8
  %and.i = and i64 %.val, 1
  %tobool.not.i = icmp eq i64 %and.i, 0
  br i1 %tobool.not.i, label %if.then2, label %if.end7

if.then2:                                         ; preds = %if.end
  %refcount_block_cache = getelementptr inbounds nuw i8, ptr %0, i64 88
  %3 = load ptr, ptr %refcount_block_cache, align 8
  %call3 = tail call i32 @qcow2_cache_write(ptr noundef nonnull %bs, ptr noundef %3) #17
  %cmp4 = icmp slt i32 %call3, 0
  br i1 %cmp4, label %return, label %if.end7

if.end7:                                          ; preds = %if.then2, %if.end
  br label %return

return:                                           ; preds = %if.then2, %entry, %if.end7
  %retval.0 = phi i32 [ 0, %if.end7 ], [ %call, %entry ], [ %call3, %if.then2 ]
  ret i32 %retval.0
}